target datalayout = "e-m:e-p270:32:32-p271:32:32-p272:64:64-i64:64-i128:128-f80:128-n8:16:32:64-S128"
target triple = "x86_64-pc-linux-gnu"

%struct.redisServer = type { i32, i64, ptr, ptr, ptr, i32, i32, i32, i32, i32, ptr, ptr, ptr, ptr, ptr, i32, i32, i32, i32, i64, i32, i32, i32, i32, ptr, i32, i32, [41 x i8], i32, i64, i32, i32, i32, ptr, ptr, i32, i32, i64, ptr, ptr, ptr, ptr, [2 x i32], i32, i32, i32, i32, i32, i32, [16 x ptr], i32, ptr, ptr, i32, [8 x %struct.connListener], i32, %struct.connListener, ptr, ptr, ptr, ptr, ptr, ptr, ptr, ptr, ptr, ptr, i32, ptr, i32, ptr, [3 x %struct.pause_event], [256 x i8], ptr, i64, i32, i32, [128 x i32], i32, i32, i64, i32, i32, i32, i32, i32, i64, i64, i64, i64, i64, i64, i64, i64, i64, i64, double, i64, i64, i64, i64, i64, i64, i64, i64, i64, i64, i64, i64, i64, i64, i64, i64, i64, i64, i64, i64, i64, double, i64, i64, i64, i64, i64, ptr, i64, i64, i64, %struct.malloc_stats, i64, i64, i64, i64, i64, i64, i64, i64, i64, i64, i64, i64, double, [4 x i64], i64, i64, i64, i64, [128 x i64], [128 x i64], i64, i64, [7 x %struct.anon], i64, i64, i64, i64, i64, i64, [4 x %struct.durationStats], i32, i32, i32, i32, i32, i32, i32, i32, i32, i32, i32, i32, i64, i32, i32, i32, i32, i64, i64, i32, i32, i32, i32, i32, ptr, [3 x %struct.clientBufferLimitsConfig], i32, i32, i32, ptr, i32, i32, i32, i32, i32, i32, ptr, ptr, i32, i32, i64, i64, i64, i64, i64, i32, i32, ptr, i32, i32, i64, i64, i64, i64, i64, i32, i32, i64, i32, i32, i32, i32, i32, i32, i32, i32, ptr, i32, i64, i64, i64, i64, i32, ptr, i32, ptr, i32, i32, i32, i64, i64, i64, i64, i32, i32, i32, i32, i32, i32, ptr, i32, i32, ptr, i32, i32, i32, [2 x i32], i32, %struct.redisOpArray, i32, ptr, i32, ptr, i32, i32, i32, i32, i32, i32, i32, [41 x i8], [41 x i8], i64, i64, i64, i64, i32, i32, ptr, i64, i64, %struct.replDataBuf, i64, i64, i32, i32, i32, i32, i32, i32, i32, i32, i32, i64, ptr, i64, ptr, ptr, ptr, i32, i32, ptr, ptr, i32, i32, i32, i64, i64, i64, i64, ptr, ptr, i32, ptr, i64, i32, i32, i32, i64, i32, i32, i32, i32, ptr, i32, i32, [41 x i8], i64, i32, ptr, i32, i32, i64, i64, i32, i32, i32, i32, i32, i64, [3 x i32], i32, i32, i32, [10 x i32], ptr, ptr, i32, i64, ptr, ptr, i32, i32, i32, i32, i64, i64, i64, i64, i64, i64, i64, i64, i64, i64, i32, i32, i64, i64, i32, i64, i64, i64, i64, i64, ptr, ptr, i32, ptr, i32, i32, i32, i32, i64, i64, ptr, ptr, i32, i32, i32, i32, i32, ptr, ptr, ptr, i32, i32, i32, i32, i32, i32, i32, i64, i32, i32, i64, i32, i32, i32, i32, i32, i32, i32, i64, ptr, ptr, i64, ptr, i32, %struct.aclInfo, i32, i64, i32, i32, i32, %struct.redisTLSContextConfig, ptr, ptr, ptr, ptr, ptr, i64, i32, ptr, i32, i32, i32, i64, i32, ptr }
%struct.connListener = type { [16 x i32], i32, ptr, i32, i32, ptr, ptr }
%struct.pause_event = type { i32, i64 }
%struct.malloc_stats = type { i64, i64, i64, i64, i64, i64, i64, i64, i64, i64, i64 }
%struct.anon = type { i64, i64, [16 x i64], i32 }
%struct.durationStats = type { i64, i64, i64 }
%struct.clientBufferLimitsConfig = type { i64, i64, i64 }
%struct.redisOpArray = type { ptr, i32, i32 }
%struct.replDataBuf = type { ptr, i64, i64, i64, i64 }
%struct.aclInfo = type { i64, i64, i64, i64 }
%struct.redisTLSContextConfig = type { ptr, ptr, ptr, ptr, ptr, ptr, ptr, ptr, ptr, ptr, ptr, ptr, i32, i32, i32, i32 }
%struct.clusterState = type { ptr, i64, i32, i32, ptr, ptr, ptr, [16384 x ptr], [16384 x ptr], [16384 x ptr], [40 x i8], i64, i32, i32, i32, i64, i32, i64, ptr, i64, i32, i64, i32, [11 x i64], [11 x i64], i64, i64, [2048 x i8] }

@server = external global %struct.redisServer, align 8
@.str.18 = private unnamed_addr constant [17 x i8] c"cluster_legacy.c\00", align 1
@.str.62 = private unnamed_addr constant [49 x i8] c"dictAdd(server.cluster->shards, s, l) == DICT_OK\00", align 1

; Function Attrs: nounwind uwtable
define dso_local void @clusterAddNodeToShard(ptr noundef %0, ptr noundef %1) #0 {
  %3 = alloca ptr, align 8
  %4 = alloca ptr, align 8
  %5 = alloca ptr, align 8
  %6 = alloca ptr, align 8
  %7 = alloca ptr, align 8
  %8 = alloca ptr, align 8
  store ptr %0, ptr %3, align 8, !tbaa !52
  store ptr %1, ptr %4, align 8, !tbaa !5
  call void @llvm.lifetime.start.p0(i64 8, ptr %5) #16
  %9 = load ptr, ptr %3, align 8, !tbaa !52
  %10 = call ptr @sdsnewlen(ptr noundef %9, i64 noundef 40)
  store ptr %10, ptr %5, align 8, !tbaa !52
  call void @llvm.lifetime.start.p0(i64 8, ptr %6) #16
  %11 = load ptr, ptr getelementptr inbounds nuw (%struct.redisServer, ptr @server, i32 0, i32 385), align 8, !tbaa !57
  %12 = getelementptr inbounds nuw %struct.clusterState, ptr %11, i32 0, i32 5
  %13 = load ptr, ptr %12, align 8, !tbaa !58
  %14 = load ptr, ptr %5, align 8, !tbaa !52
  %15 = call ptr @dictFind(ptr noundef %13, ptr noundef %14)
  store ptr %15, ptr %6, align 8, !tbaa !60
  %16 = load ptr, ptr %6, align 8, !tbaa !60
  %17 = icmp eq ptr %16, null
  br i1 %17, label %18, label %40

18:                                               ; preds = %2
  call void @llvm.lifetime.start.p0(i64 8, ptr %7) #16
  %19 = call ptr @listCreate()
  store ptr %19, ptr %7, align 8, !tbaa !62
  %20 = load ptr, ptr %7, align 8, !tbaa !62
  %21 = load ptr, ptr %4, align 8, !tbaa !5
  %22 = call ptr @listAddNodeTail(ptr noundef %20, ptr noundef %21)
  %23 = load ptr, ptr getelementptr inbounds nuw (%struct.redisServer, ptr @server, i32 0, i32 385), align 8, !tbaa !57
  %24 = getelementptr inbounds nuw %struct.clusterState, ptr %23, i32 0, i32 5
  %25 = load ptr, ptr %24, align 8, !tbaa !58
  %26 = load ptr, ptr %5, align 8, !tbaa !52
  %27 = load ptr, ptr %7, align 8, !tbaa !62
  %28 = call i32 @dictAdd(ptr noundef %25, ptr noundef %26, ptr noundef %27)
  %29 = icmp eq i32 %28, 0
  %30 = xor i1 %29, true
  %31 = xor i1 %30, true
  %32 = zext i1 %31 to i32
  %33 = sext i32 %32 to i64
  %34 = call i64 @llvm.expect.i64(i64 %33, i64 1)
  %35 = icmp ne i64 %34, 0
  br i1 %35, label %36, label %37

36:                                               ; preds = %18
  br label %39

37:                                               ; preds = %18
  call void @_serverAssert(ptr noundef @.str.62, ptr noundef @.str.18, i32 noundef 1629)
  call void @abort() #18
  unreachable

38:                                               ; No predecessors!
  br label %39

39:                                               ; preds = %38, %36
  call void @llvm.lifetime.end.p0(i64 8, ptr %7) #16
  br label %53

40:                                               ; preds = %2
  call void @llvm.lifetime.start.p0(i64 8, ptr %8) #16
  %41 = load ptr, ptr %6, align 8, !tbaa !60
  %42 = call ptr @dictGetVal(ptr noundef %41)
  store ptr %42, ptr %8, align 8, !tbaa !62
  %43 = load ptr, ptr %8, align 8, !tbaa !62
  %44 = load ptr, ptr %4, align 8, !tbaa !5
  %45 = call ptr @listSearchKey(ptr noundef %43, ptr noundef %44)
  %46 = icmp eq ptr %45, null
  br i1 %46, label %47, label %51

47:                                               ; preds = %40
  %48 = load ptr, ptr %8, align 8, !tbaa !62
  %49 = load ptr, ptr %4, align 8, !tbaa !5
  %50 = call ptr @listAddNodeTail(ptr noundef %48, ptr noundef %49)
  br label %51

51:                                               ; preds = %47, %40
  %52 = load ptr, ptr %5, align 8, !tbaa !52
  call void @sdsfree(ptr noundef %52)
  call void @llvm.lifetime.end.p0(i64 8, ptr %8) #16
  br label %53

53:                                               ; preds = %51, %39
  call void @llvm.lifetime.end.p0(i64 8, ptr %6) #16
  call void @llvm.lifetime.end.p0(i64 8, ptr %5) #16
  ret void
}