; Function Attrs: nounwind uwtable
define dso_local void @clusterAddNodeToShard(ptr noundef %0, ptr noundef %1) local_unnamed_addr #3 {
  %3 = tail call ptr @sdsnewlen(ptr noundef %0, i64 noundef 40) #33
  %4 = load ptr, ptr getelementptr inbounds nuw (i8, ptr @server, i64 7920), align 8, !tbaa !56
  %5 = getelementptr inbounds nuw i8, ptr %4, i64 32
  %6 = load ptr, ptr %5, align 8, !tbaa !61
  %7 = tail call ptr @dictFind(ptr noundef %6, ptr noundef %3) #33
  %8 = icmp eq ptr %7, null
  br i1 %8, label %9, label %18

9:                                                ; preds = %2
  %10 = tail call ptr @listCreate() #33
  %11 = tail call ptr @listAddNodeTail(ptr noundef %10, ptr noundef %1) #33
  %12 = load ptr, ptr getelementptr inbounds nuw (i8, ptr @server, i64 7920), align 8, !tbaa !56
  %13 = getelementptr inbounds nuw i8, ptr %12, i64 32
  %14 = load ptr, ptr %13, align 8, !tbaa !61
  %15 = tail call i32 @dictAdd(ptr noundef %14, ptr noundef %3, ptr noundef %10) #33
  %16 = icmp eq i32 %15, 0
  br i1 %16, label %25, label %17, !prof !62

17:                                               ; preds = %9
  tail call void @_serverAssert(ptr noundef nonnull @.str.62, ptr noundef nonnull @.str.18, i32 noundef 1629) #33
  tail call void @abort() #35
  unreachable

18:                                               ; preds = %2
  %19 = tail call ptr @dictGetVal(ptr noundef nonnull %7) #33
  %20 = tail call ptr @listSearchKey(ptr noundef %19, ptr noundef %1) #33
  %21 = icmp eq ptr %20, null
  br i1 %21, label %22, label %24

22:                                               ; preds = %18
  %23 = tail call ptr @listAddNodeTail(ptr noundef %19, ptr noundef %1) #33
  br label %24

24:                                               ; preds = %22, %18
  tail call void @sdsfree(ptr noundef %3) #33
  br label %25

25:                                               ; preds = %9, %24
  ret void
}